; Function Attrs: nounwind sspstrong uwtable
define internal fastcc void @io_buffer_write_S32(ptr noundef %0, i64 noundef %1, ptr noundef nonnull captures(none) %2, i64 noundef %3) unnamed_addr #0 {
  %5 = load i64, ptr %2, align 8, !tbaa !22
  %6 = add i64 %5, 4
  %7 = icmp ugt i64 %6, %1
  br i1 %7, label %8, label %io_buffer_validate_type.exit

8:                                                ; preds = %4
  %9 = load i64, ptr @rb_eArgError, align 8, !tbaa !22
  tail call void (i64, ptr, ...) @rb_raise(i64 noundef %9, ptr noundef nonnull @.str.138, i64 noundef %6, i64 noundef %1) #26
  unreachable

io_buffer_validate_type.exit:                     ; preds = %4
  %10 = and i64 %3, 1
  %.not.i = icmp eq i64 %10, 0
  br i1 %.not.i, label %13, label %11

11:                                               ; preds = %io_buffer_validate_type.exit
  %12 = tail call i64 @rb_fix2int(i64 noundef %3) #25
  br label %rb_num2int_inline.exit

13:                                               ; preds = %io_buffer_validate_type.exit
  %14 = tail call i64 @rb_num2int(i64 noundef %3) #25
  br label %rb_num2int_inline.exit

rb_num2int_inline.exit:                           ; preds = %11, %13
  %.0.i = phi i64 [ %12, %11 ], [ %14, %13 ]
  %15 = trunc i64 %.0.i to i32
  %16 = tail call noundef i32 @llvm.bswap.i32(i32 %15)
  %17 = load i64, ptr %2, align 8, !tbaa !22
  %18 = getelementptr i8, ptr %0, i64 %17
  store i32 %16, ptr %18, align 1
  %19 = load i64, ptr %2, align 8, !tbaa !22
  %20 = add i64 %19, 4
  store i64 %20, ptr %2, align 8, !tbaa !22
  ret void
}